target datalayout = "e-m:e-p270:32:32-p271:32:32-p272:64:64-i64:64-i128:128-f80:128-n8:16:32:64-S128"
target triple = "x86_64-pc-linux-gnu"

%struct.SResource = type { ptr, i8, i8, i32, i32, i32, i32, i32, ptr, %struct.UString }
%struct.UString = type { ptr, i32, i32 }
%struct.SRBRoot = type { ptr, ptr, i32, i32, i8, i8, i8, ptr, ptr, i32, i32, i32, i32, i32, %"class.icu_77::UnicodeString", i32, ptr, i32, i32, i32, ptr }
%"class.icu_77::UnicodeString" = type { %"class.icu_77::Replaceable", %"union.icu_77::UnicodeString::StackBufferOrFields" }
%"class.icu_77::Replaceable" = type { %"class.icu_77::UObject" }
%"class.icu_77::UObject" = type { ptr }
%"union.icu_77::UnicodeString::StackBufferOrFields" = type { %struct.anon.0, [32 x i8] }
%struct.anon.0 = type { i16, i32, i32, ptr }
%class.ContainerResource = type { %struct.SResource, i32, ptr }

@_ZL14gFormatVersion = internal global i32 3, align 4

; Function Attrs: inlinehint mustprogress nounwind uwtable
define linkonce_odr dso_local noundef i32 @_ZNK6icu_7713UnicodeString14getShortLengthEv(ptr noundef nonnull align 8 dereferenceable(64) %0) #9 comdat align 2 {
  %2 = alloca ptr, align 8
  store ptr %0, ptr %2, align 8, !tbaa !74
  %3 = load ptr, ptr %2, align 8
  %4 = getelementptr inbounds nuw %"class.icu_77::UnicodeString", ptr %3, i32 0, i32 1
  %5 = getelementptr inbounds nuw %struct.anon.0, ptr %4, i32 0, i32 0
  %6 = load i16, ptr %5, align 8, !tbaa !22
  %7 = sext i16 %6 to i32
  %8 = ashr i32 %7, 5
  ret i32 %8
}

; Function Attrs: inlinehint mustprogress nounwind uwtable
define linkonce_odr dso_local noundef signext i8 @_ZNK6icu_7713UnicodeString14hasShortLengthEv(ptr noundef nonnull align 8 dereferenceable(64) %0) #9 comdat align 2 {
  %2 = alloca ptr, align 8
  store ptr %0, ptr %2, align 8, !tbaa !74
  %3 = load ptr, ptr %2, align 8
  %4 = getelementptr inbounds nuw %"class.icu_77::UnicodeString", ptr %3, i32 0, i32 1
  %5 = getelementptr inbounds nuw %struct.anon.0, ptr %4, i32 0, i32 0
  %6 = load i16, ptr %5, align 8, !tbaa !22
  %7 = sext i16 %6 to i32
  %8 = icmp sge i32 %7, 0
  %9 = zext i1 %8 to i8
  ret i8 %9
}

; Function Attrs: mustprogress uwtable
define dso_local void @_ZN17ContainerResource13writeAllRes16EP7SRBRoot(ptr noundef nonnull align 8 dereferenceable(72) %0, ptr noundef %1) #5 align 2 {
  %3 = alloca ptr, align 8
  %4 = alloca ptr, align 8
  %5 = alloca ptr, align 8
  store ptr %0, ptr %3, align 8, !tbaa !53
  store ptr %1, ptr %4, align 8, !tbaa !39
  %6 = load ptr, ptr %3, align 8
  call void @llvm.lifetime.start.p0(i64 8, ptr %5) #3
  %7 = getelementptr inbounds nuw %class.ContainerResource, ptr %6, i32 0, i32 2
  %8 = load ptr, ptr %7, align 8, !tbaa !55
  store ptr %8, ptr %5, align 8, !tbaa !24
  br label %9

9:                                                ; preds = %21, %2
  %10 = load ptr, ptr %5, align 8, !tbaa !24
  %11 = icmp ne ptr %10, null
  br i1 %11, label %13, label %12

12:                                               ; preds = %9
  call void @llvm.lifetime.end.p0(i64 8, ptr %5) #3
  br label %25

13:                                               ; preds = %9
  %14 = load ptr, ptr %4, align 8, !tbaa !39
  %15 = getelementptr inbounds nuw %struct.SRBRoot, ptr %14, i32 0, i32 14
  %16 = load ptr, ptr %5, align 8, !tbaa !24
  %17 = getelementptr inbounds nuw %struct.SResource, ptr %16, i32 0, i32 4
  %18 = load i32, ptr %17, align 8, !tbaa !34
  %19 = trunc i32 %18 to i16
  %20 = call noundef nonnull align 8 dereferenceable(64) ptr @_ZN6icu_7713UnicodeString6appendEDs(ptr noundef nonnull align 8 dereferenceable(64) %15, i16 noundef zeroext %19)
  br label %21

21:                                               ; preds = %13
  %22 = load ptr, ptr %5, align 8, !tbaa !24
  %23 = getelementptr inbounds nuw %struct.SResource, ptr %22, i32 0, i32 8
  %24 = load ptr, ptr %23, align 8, !tbaa !38
  store ptr %24, ptr %5, align 8, !tbaa !24
  br label %9, !llvm.loop !124

25:                                               ; preds = %12
  %26 = getelementptr inbounds nuw %struct.SResource, ptr %6, i32 0, i32 2
  store i8 1, ptr %26, align 1, !tbaa !32
  ret void
}

; Function Attrs: inlinehint mustprogress uwtable
define linkonce_odr dso_local noundef nonnull align 8 dereferenceable(64) ptr @_ZN6icu_7713UnicodeString6appendEDs(ptr noundef nonnull align 8 dereferenceable(64) %0, i16 noundef zeroext %1) #11 comdat align 2 {
  %3 = alloca ptr, align 8
  %4 = alloca i16, align 2
  store ptr %0, ptr %3, align 8, !tbaa !74
  store i16 %1, ptr %4, align 2, !tbaa !113
  %5 = load ptr, ptr %3, align 8
  %6 = call noundef nonnull align 8 dereferenceable(64) ptr @_ZN6icu_7713UnicodeString8doAppendEPKDsii(ptr noundef nonnull align 8 dereferenceable(64) %5, ptr noundef %4, i32 noundef 0, i32 noundef 1)
  ret ptr %6
}

; Function Attrs: inlinehint mustprogress uwtable
define linkonce_odr dso_local noundef i32 @_ZNK6icu_7713UnicodeString6lengthEv(ptr noundef nonnull align 8 dereferenceable(64) %0) #11 comdat align 2 {
  %2 = alloca ptr, align 8
  store ptr %0, ptr %2, align 8, !tbaa !74
  %3 = load ptr, ptr %2, align 8
  %4 = call noundef signext i8 @_ZNK6icu_7713UnicodeString14hasShortLengthEv(ptr noundef nonnull align 8 dereferenceable(64) %3)
  %5 = icmp ne i8 %4, 0
  br i1 %5, label %6, label %8

6:                                                ; preds = %1
  %7 = call noundef i32 @_ZNK6icu_7713UnicodeString14getShortLengthEv(ptr noundef nonnull align 8 dereferenceable(64) %3)
  br label %12

8:                                                ; preds = %1
  %9 = getelementptr inbounds nuw %"class.icu_77::UnicodeString", ptr %3, i32 0, i32 1
  %10 = getelementptr inbounds nuw %struct.anon.0, ptr %9, i32 0, i32 1
  %11 = load i32, ptr %10, align 4, !tbaa !22
  br label %12

12:                                               ; preds = %8, %6
  %13 = phi i32 [ %7, %6 ], [ %11, %8 ]
  ret i32 %13
}

; Function Attrs: mustprogress uwtable
define dso_local void @_ZN13ArrayResource13handleWrite16EP7SRBRoot(ptr noundef nonnull align 8 dereferenceable(80) %0, ptr noundef %1) unnamed_addr #5 align 2 {
  %3 = alloca ptr, align 8
  %4 = alloca ptr, align 8
  %5 = alloca i32, align 4
  %6 = alloca ptr, align 8
  store ptr %0, ptr %3, align 8, !tbaa !66
  store ptr %1, ptr %4, align 8, !tbaa !39
  %7 = load ptr, ptr %3, align 8
  %8 = getelementptr inbounds nuw %class.ContainerResource, ptr %7, i32 0, i32 1
  %9 = load i32, ptr %8, align 8, !tbaa !61
  %10 = icmp eq i32 %9, 0
  br i1 %10, label %11, label %17

11:                                               ; preds = %2
  %12 = load i32, ptr @_ZL14gFormatVersion, align 4, !tbaa !23
  %13 = icmp sgt i32 %12, 1
  br i1 %13, label %14, label %17

14:                                               ; preds = %11
  %15 = getelementptr inbounds nuw %struct.SResource, ptr %7, i32 0, i32 3
  store i32 -2147483648, ptr %15, align 4, !tbaa !33
  %16 = getelementptr inbounds nuw %struct.SResource, ptr %7, i32 0, i32 2
  store i8 1, ptr %16, align 1, !tbaa !32
  br label %60

17:                                               ; preds = %11, %2
  call void @llvm.lifetime.start.p0(i64 4, ptr %5) #3
  store i32 0, ptr %5, align 4, !tbaa !23
  call void @llvm.lifetime.start.p0(i64 8, ptr %6) #3
  %18 = getelementptr inbounds nuw %class.ContainerResource, ptr %7, i32 0, i32 2
  %19 = load ptr, ptr %18, align 8, !tbaa !55
  store ptr %19, ptr %6, align 8, !tbaa !24
  br label %20

20:                                               ; preds = %32, %17
  %21 = load ptr, ptr %6, align 8, !tbaa !24
  %22 = icmp ne ptr %21, null
  br i1 %22, label %24, label %23

23:                                               ; preds = %20
  call void @llvm.lifetime.end.p0(i64 8, ptr %6) #3
  br label %36

24:                                               ; preds = %20
  %25 = load ptr, ptr %6, align 8, !tbaa !24
  %26 = load ptr, ptr %4, align 8, !tbaa !39
  call void @_ZN9SResource7write16EP7SRBRoot(ptr noundef nonnull align 8 dereferenceable(56) %25, ptr noundef %26)
  %27 = load ptr, ptr %6, align 8, !tbaa !24
  %28 = getelementptr inbounds nuw %struct.SResource, ptr %27, i32 0, i32 4
  %29 = load i32, ptr %28, align 8, !tbaa !34
  %30 = load i32, ptr %5, align 4, !tbaa !23
  %31 = or i32 %30, %29
  store i32 %31, ptr %5, align 4, !tbaa !23
  br label %32

32:                                               ; preds = %24
  %33 = load ptr, ptr %6, align 8, !tbaa !24
  %34 = getelementptr inbounds nuw %struct.SResource, ptr %33, i32 0, i32 8
  %35 = load ptr, ptr %34, align 8, !tbaa !38
  store ptr %35, ptr %6, align 8, !tbaa !24
  br label %20, !llvm.loop !125

36:                                               ; preds = %23
  %37 = getelementptr inbounds nuw %class.ContainerResource, ptr %7, i32 0, i32 1
  %38 = load i32, ptr %37, align 8, !tbaa !61
  %39 = icmp ule i32 %38, 65535
  br i1 %39, label %40, label %59

40:                                               ; preds = %36
  %41 = load i32, ptr %5, align 4, !tbaa !23
  %42 = icmp sge i32 %41, 0
  br i1 %42, label %43, label %59

43:                                               ; preds = %40
  %44 = load i32, ptr @_ZL14gFormatVersion, align 4, !tbaa !23
  %45 = icmp sgt i32 %44, 1
  br i1 %45, label %46, label %59

46:                                               ; preds = %43
  %47 = load ptr, ptr %4, align 8, !tbaa !39
  %48 = getelementptr inbounds nuw %struct.SRBRoot, ptr %47, i32 0, i32 14
  %49 = call noundef i32 @_ZNK6icu_7713UnicodeString6lengthEv(ptr noundef nonnull align 8 dereferenceable(64) %48)
  %50 = or i32 -1879048192, %49
  %51 = getelementptr inbounds nuw %struct.SResource, ptr %7, i32 0, i32 3
  store i32 %50, ptr %51, align 4, !tbaa !33
  %52 = load ptr, ptr %4, align 8, !tbaa !39
  %53 = getelementptr inbounds nuw %struct.SRBRoot, ptr %52, i32 0, i32 14
  %54 = getelementptr inbounds nuw %class.ContainerResource, ptr %7, i32 0, i32 1
  %55 = load i32, ptr %54, align 8, !tbaa !61
  %56 = trunc i32 %55 to i16
  %57 = call noundef nonnull align 8 dereferenceable(64) ptr @_ZN6icu_7713UnicodeString6appendEDs(ptr noundef nonnull align 8 dereferenceable(64) %53, i16 noundef zeroext %56)
  %58 = load ptr, ptr %4, align 8, !tbaa !39
  call void @_ZN17ContainerResource13writeAllRes16EP7SRBRoot(ptr noundef nonnull align 8 dereferenceable(72) %7, ptr noundef %58)
  br label %59

59:                                               ; preds = %46, %43, %40, %36
  call void @llvm.lifetime.end.p0(i64 4, ptr %5) #3
  br label %60

60:                                               ; preds = %59, %14
  ret void
}