; Function Attrs: mustprogress uwtable
define dso_local void @_ZN13ArrayResource13handleWrite16EP7SRBRoot(ptr noundef nonnull align 8 captures(none) dereferenceable(80) %0, ptr noundef %1) unnamed_addr #7 align 2 {
  %3 = alloca i16, align 2
  %4 = alloca i16, align 2
  %5 = getelementptr inbounds nuw i8, ptr %0, i64 56
  %6 = load i32, ptr %5, align 8, !tbaa !42
  %7 = icmp eq i32 %6, 0
  %8 = load i32, ptr @_ZL14gFormatVersion, align 4
  %9 = icmp sgt i32 %8, 1
  %or.cond = select i1 %7, i1 %9, i1 false
  br i1 %or.cond, label %10, label %12

10:                                               ; preds = %2
  %11 = getelementptr inbounds nuw i8, ptr %0, i64 12
  store i32 -2147483648, ptr %11, align 4, !tbaa !20
  br label %.sink.split

12:                                               ; preds = %2
  %13 = getelementptr inbounds nuw i8, ptr %0, i64 64
  %.016 = load ptr, ptr %13, align 8, !tbaa !74
  %.not17 = icmp eq ptr %.016, null
  br i1 %.not17, label %._crit_edge, label %.lr.ph

._crit_edge.loopexit:                             ; preds = %.lr.ph
  %.pre = load i32, ptr %5, align 8, !tbaa !42
  %.pre20 = load i32, ptr @_ZL14gFormatVersion, align 4
  %14 = icmp sgt i32 %21, -1
  br label %._crit_edge

._crit_edge:                                      ; preds = %._crit_edge.loopexit, %12
  %15 = phi i32 [ %8, %12 ], [ %.pre20, %._crit_edge.loopexit ]
  %16 = phi i32 [ %6, %12 ], [ %.pre, %._crit_edge.loopexit ]
  %.015.lcssa = phi i1 [ true, %12 ], [ %14, %._crit_edge.loopexit ]
  %17 = icmp ult i32 %16, 65536
  %or.cond3 = select i1 %17, i1 %.015.lcssa, i1 false
  %18 = icmp sgt i32 %15, 1
  %or.cond5 = select i1 %or.cond3, i1 %18, i1 false
  br i1 %or.cond5, label %23, label %43

.lr.ph:                                           ; preds = %12, %.lr.ph
  %.019 = phi ptr [ %.0, %.lr.ph ], [ %.016, %12 ]
  %.01518 = phi i32 [ %21, %.lr.ph ], [ 0, %12 ]
  tail call void @_ZN9SResource7write16EP7SRBRoot(ptr noundef nonnull align 8 dereferenceable(56) %.019, ptr noundef %1)
  %19 = getelementptr inbounds nuw i8, ptr %.019, i64 16
  %20 = load i32, ptr %19, align 8, !tbaa !21
  %21 = or i32 %20, %.01518
  %22 = getelementptr inbounds nuw i8, ptr %.019, i64 32
  %.0 = load ptr, ptr %22, align 8, !tbaa !74
  %.not = icmp eq ptr %.0, null
  br i1 %.not, label %._crit_edge.loopexit, label %.lr.ph, !llvm.loop !87

23:                                               ; preds = %._crit_edge
  %24 = getelementptr inbounds nuw i8, ptr %1, i64 72
  %25 = getelementptr inbounds nuw i8, ptr %1, i64 80
  %26 = load i16, ptr %25, align 8, !tbaa !4
  %27 = icmp slt i16 %26, 0
  %28 = ashr i16 %26, 5
  %29 = sext i16 %28 to i32
  %30 = getelementptr inbounds nuw i8, ptr %1, i64 84
  %31 = load i32, ptr %30, align 4
  %32 = select i1 %27, i32 %31, i32 %29
  %33 = or i32 %32, -1879048192
  %34 = getelementptr inbounds nuw i8, ptr %0, i64 12
  store i32 %33, ptr %34, align 4, !tbaa !20
  %35 = trunc nuw i32 %16 to i16
  call void @llvm.lifetime.start.p0(i64 2, ptr nonnull %4)
  store i16 %35, ptr %4, align 2, !tbaa !70
  %36 = call noundef nonnull align 8 dereferenceable(64) ptr @_ZN6icu_7713UnicodeString8doAppendEPKDsii(ptr noundef nonnull align 8 dereferenceable(64) %24, ptr noundef nonnull %4, i32 noundef 0, i32 noundef 1)
  call void @llvm.lifetime.end.p0(i64 2, ptr nonnull %4)
  %.05.i = load ptr, ptr %13, align 8, !tbaa !74
  %.not6.i = icmp eq ptr %.05.i, null
  br i1 %.not6.i, label %.sink.split, label %.lr.ph.i

.lr.ph.i:                                         ; preds = %23, %.lr.ph.i
  %.07.i = phi ptr [ %.0.i, %.lr.ph.i ], [ %.05.i, %23 ]
  %37 = getelementptr inbounds nuw i8, ptr %.07.i, i64 16
  %38 = load i32, ptr %37, align 8, !tbaa !21
  %39 = trunc i32 %38 to i16
  call void @llvm.lifetime.start.p0(i64 2, ptr nonnull %3)
  store i16 %39, ptr %3, align 2, !tbaa !70
  %40 = call noundef nonnull align 8 dereferenceable(64) ptr @_ZN6icu_7713UnicodeString8doAppendEPKDsii(ptr noundef nonnull align 8 dereferenceable(64) %24, ptr noundef nonnull %3, i32 noundef 0, i32 noundef 1)
  call void @llvm.lifetime.end.p0(i64 2, ptr nonnull %3)
  %41 = getelementptr inbounds nuw i8, ptr %.07.i, i64 32
  %.0.i = load ptr, ptr %41, align 8, !tbaa !74
  %.not.i = icmp eq ptr %.0.i, null
  br i1 %.not.i, label %.sink.split, label %.lr.ph.i, !llvm.loop !86

.sink.split:                                      ; preds = %.lr.ph.i, %23, %10
  %42 = getelementptr inbounds nuw i8, ptr %0, i64 9
  store i8 1, ptr %42, align 1, !tbaa !17
  br label %43

43:                                               ; preds = %.sink.split, %._crit_edge
  ret void
}